target datalayout = "e-m:e-p270:32:32-p271:32:32-p272:64:64-i64:64-i128:128-f80:128-n8:16:32:64-S128"
target triple = "x86_64-pc-linux-gnu"

%struct.H264Ref = type { [3 x ptr], [3 x i32], i32, i32, i32, ptr }
%struct.MMCO = type { i32, i32, i32 }
%struct.H264Context = type { ptr, ptr, %struct.VideoDSPContext, %struct.H264DSPContext, %struct.H264ChromaContext, %struct.H264QpelContext, %struct.H274FilmGrainDatabase, [36 x %struct.H264Picture], ptr, %struct.H264Picture, %struct.H264Picture, ptr, i32, i32, %struct.H2645Packet, i32, i32, i32, i32, i32, i32, i32, i32, i32, i32, i32, i32, i32, i32, i32, i32, i32, ptr, %struct.H264PredContext, ptr, [96 x i32], ptr, ptr, i32, ptr, i32, i32, i32, ptr, ptr, ptr, [2 x ptr], ptr, [16 x i8], [16 x i8], [64 x i8], [64 x i8], [16 x i8], [64 x i8], [64 x i8], [16 x i8], [64 x i8], [64 x i8], [16 x i8], [64 x i8], [64 x i8], i32, i32, i32, i32, i32, i32, i32, i32, i32, i32, i32, i32, %struct.H264ParamSets, ptr, %struct.H264POCContext, [2 x %struct.H264Ref], [32 x ptr], [32 x ptr], [18 x ptr], [16 x i32], ptr, i32, i32, [67 x %struct.MMCO], i32, i32, i32, i32, i32, i32, i32, i32, i32, i32, i32, i32, i32, i32, i32, [32 x i16], i32, i32, i32, %struct.ERContext, ptr, %struct.H264SEIContext, ptr, ptr, ptr, ptr, ptr, [32 x [2 x [64 x i32]]], i32, i32, i32 }
%struct.VideoDSPContext = type { ptr, ptr }
%struct.H264DSPContext = type { [4 x ptr], [4 x ptr], ptr, ptr, ptr, ptr, ptr, ptr, ptr, ptr, ptr, ptr, ptr, ptr, ptr, ptr, ptr, ptr, ptr, ptr, ptr, ptr, ptr, ptr, ptr, ptr, ptr, ptr }
%struct.H264ChromaContext = type { [4 x ptr], [4 x ptr] }
%struct.H264QpelContext = type { [4 x [16 x ptr]], [4 x [16 x ptr]] }
%struct.H274FilmGrainDatabase = type { [13 x [13 x [64 x [64 x i8]]]], [13 x i16], [64 x [64 x i16]] }
%struct.H264Picture = type { ptr, %struct.ThreadFrame, ptr, ptr, ptr, [2 x ptr], [2 x ptr], ptr, ptr, ptr, [2 x ptr], [2 x i32], i32, i32, i32, i32, i32, [2 x [2 x [32 x i32]]], [2 x [2 x i32]], i32, i32, i32, i32, i32, i32, i32, ptr, i32, i32, i32, ptr, i32 }
%struct.ThreadFrame = type { ptr, [2 x ptr], ptr }
%struct.H2645Packet = type { ptr, %struct.H2645RBSP, i32, i32, i32 }
%struct.H2645RBSP = type { ptr, ptr, i32, i32 }
%struct.H264PredContext = type { [15 x ptr], [12 x ptr], [11 x ptr], [9 x ptr], [2 x ptr], [2 x ptr], [2 x ptr], [3 x ptr], [3 x ptr] }
%struct.H264ParamSets = type { [32 x ptr], [256 x ptr], ptr, ptr, [2 x i32] }
%struct.H264POCContext = type { i32, i32, i32, [2 x i32], i32, i32, i32, i32, i32, i32 }
%struct.ERContext = type { ptr, ptr, i32, ptr, i32, i32, i32, i64, i64, i32, i32, ptr, ptr, [3 x ptr], ptr, ptr, [2 x [4 x [2 x i32]]], %struct.ERPicture, %struct.ERPicture, %struct.ERPicture, [2 x ptr], [2 x ptr], i16, i16, i32, i32, ptr, ptr }
%struct.ERPicture = type { ptr, ptr, ptr, [2 x ptr], [2 x ptr], ptr, i32 }
%struct.H264SEIContext = type { %struct.H2645SEI, %struct.H264SEIPictureTiming, %struct.H264SEIRecoveryPoint, %struct.H264SEIBufferingPeriod, %struct.H264SEIGreenMetaData }
%struct.H2645SEI = type { %struct.H2645SEIA53Caption, %struct.H2645SEIAFD, %struct.HEVCSEIDynamicHDRPlus, %struct.HEVCSEIDynamicHDRVivid, %struct.HEVCSEILCEVC, %struct.H2645SEIUnregistered, %struct.H2645SEIFramePacking, %struct.H2645SEIDisplayOrientation, %struct.H2645SEIAlternativeTransfer, %struct.H2645SEIAmbientViewingEnvironment, %struct.H2645SEIMasteringDisplay, %struct.H2645SEIContentLight, %struct.AVFilmGrainAFGS1Params, ptr }
%struct.H2645SEIA53Caption = type { ptr }
%struct.H2645SEIAFD = type { i32, i8 }
%struct.HEVCSEIDynamicHDRPlus = type { ptr }
%struct.HEVCSEIDynamicHDRVivid = type { ptr }
%struct.HEVCSEILCEVC = type { ptr }
%struct.H2645SEIUnregistered = type { ptr, i32, i32 }
%struct.H2645SEIFramePacking = type { i32, i32, i32, i32, i32, i32, i32, i32 }
%struct.H2645SEIDisplayOrientation = type { i32, i32, i32, i32 }
%struct.H2645SEIAlternativeTransfer = type { i32, i32 }
%struct.H2645SEIAmbientViewingEnvironment = type { i32, i32, i16, i16 }
%struct.H2645SEIMasteringDisplay = type { i32, [3 x [2 x i16]], [2 x i16], i32, i32 }
%struct.H2645SEIContentLight = type { i32, i16, i16 }
%struct.AVFilmGrainAFGS1Params = type { i32, [8 x ptr] }
%struct.H264SEIPictureTiming = type { [40 x i8], i32, i32, i32, i32, i32, i32, [3 x %struct.H264SEITimeCode], i32 }
%struct.H264SEITimeCode = type { i32, i32, i32, i32, i32, i32 }
%struct.H264SEIRecoveryPoint = type { i32 }
%struct.H264SEIBufferingPeriod = type { i32, [32 x i32] }
%struct.H264SEIGreenMetaData = type { i8, i8, i16, i16, i8, i8, i8, i8, i8, i16 }
%struct.AVRational = type { i32, i32 }
%struct.AVChannelLayout = type { i32, i32, %union.anon, ptr }
%union.anon = type { i64 }
%struct.AVCodecContext = type { ptr, i32, i32, ptr, i32, i32, ptr, ptr, ptr, i64, i32, i32, ptr, i32, %struct.AVRational, %struct.AVRational, %struct.AVRational, i32, i32, i32, i32, i32, %struct.AVRational, i32, i32, i32, i32, i32, i32, i32, i32, i32, i32, i32, ptr, ptr, i32, float, float, float, float, float, float, float, float, float, i32, i32, i32, i32, i32, i32, i32, i32, i32, i32, i32, i32, ptr, ptr, ptr, i32, i32, i32, i32, i32, i32, i32, i32, i32, i32, %struct.AVChannelLayout, i32, i32, i32, i32, i32, i32, i32, i32, ptr, i32, i32, i32, float, float, i32, i32, i32, i32, i32, ptr, i64, i64, float, float, i32, i32, ptr, ptr, i32, i32, i32, i32, i32, ptr, ptr, ptr, ptr, i32, i32, [8 x i64], i32, i32, i32, i32, i32, i32, i32, ptr, ptr, i32, i32, i32, i32, i32, i32, i32, i32, i32, i32, ptr, ptr, i32, i32, ptr, ptr, ptr, ptr, i32, i32, i64, i32, i32, i64, ptr, i64, ptr, i32, ptr, i32 }

@.str.32 = private unnamed_addr constant [10 x i8] c"%d %d %p\0A\00", align 1
@.str.33 = private unnamed_addr constant [26 x i8] c"remove short %d count %d\0A\00", align 1

; Function Attrs: nounwind uwtable
define internal void @remove_short_at_index(ptr noundef %0, i32 noundef %1) #0 {
  %3 = alloca ptr, align 8
  %4 = alloca i32, align 4
  store ptr %0, ptr %3, align 8, !tbaa !4
  store i32 %1, ptr %4, align 4, !tbaa !11
  %5 = load ptr, ptr %3, align 8, !tbaa !4
  %6 = getelementptr inbounds nuw %struct.H264Context, ptr %5, i32 0, i32 77
  %7 = load i32, ptr %4, align 4, !tbaa !11
  %8 = sext i32 %7 to i64
  %9 = getelementptr inbounds [32 x ptr], ptr %6, i64 0, i64 %8
  store ptr null, ptr %9, align 8, !tbaa !25
  %10 = load ptr, ptr %3, align 8, !tbaa !4
  %11 = getelementptr inbounds nuw %struct.H264Context, ptr %10, i32 0, i32 89
  %12 = load i32, ptr %11, align 4, !tbaa !80
  %13 = add nsw i32 %12, -1
  store i32 %13, ptr %11, align 4, !tbaa !80
  %14 = icmp ne i32 %13, 0
  br i1 %14, label %15, label %34

15:                                               ; preds = %2
  %16 = load ptr, ptr %3, align 8, !tbaa !4
  %17 = getelementptr inbounds nuw %struct.H264Context, ptr %16, i32 0, i32 77
  %18 = load i32, ptr %4, align 4, !tbaa !11
  %19 = sext i32 %18 to i64
  %20 = getelementptr inbounds [32 x ptr], ptr %17, i64 0, i64 %19
  %21 = load ptr, ptr %3, align 8, !tbaa !4
  %22 = getelementptr inbounds nuw %struct.H264Context, ptr %21, i32 0, i32 77
  %23 = load i32, ptr %4, align 4, !tbaa !11
  %24 = add nsw i32 %23, 1
  %25 = sext i32 %24 to i64
  %26 = getelementptr inbounds [32 x ptr], ptr %22, i64 0, i64 %25
  %27 = load ptr, ptr %3, align 8, !tbaa !4
  %28 = getelementptr inbounds nuw %struct.H264Context, ptr %27, i32 0, i32 89
  %29 = load i32, ptr %28, align 4, !tbaa !80
  %30 = load i32, ptr %4, align 4, !tbaa !11
  %31 = sub nsw i32 %29, %30
  %32 = sext i32 %31 to i64
  %33 = mul i64 %32, 8
  call void @llvm.memmove.p0.p0.i64(ptr align 8 %20, ptr align 8 %26, i64 %33, i1 false)
  br label %34

34:                                               ; preds = %15, %2
  ret void
}

; Function Attrs: inlinehint nounwind uwtable
define internal i32 @unreference_pic(ptr noundef %0, ptr noundef %1, i32 noundef %2) #6 {
  %4 = alloca i32, align 4
  %5 = alloca ptr, align 8
  %6 = alloca ptr, align 8
  %7 = alloca i32, align 4
  %8 = alloca i32, align 4
  %9 = alloca i32, align 4
  store ptr %0, ptr %5, align 8, !tbaa !4
  store ptr %1, ptr %6, align 8, !tbaa !25
  store i32 %2, ptr %7, align 4, !tbaa !11
  %10 = load i32, ptr %7, align 4, !tbaa !11
  %11 = load ptr, ptr %6, align 8, !tbaa !25
  %12 = getelementptr inbounds nuw %struct.H264Picture, ptr %11, i32 0, i32 21
  %13 = load i32, ptr %12, align 4, !tbaa !82
  %14 = and i32 %13, %10
  store i32 %14, ptr %12, align 4, !tbaa !82
  %15 = icmp ne i32 %14, 0
  br i1 %15, label %16, label %17

16:                                               ; preds = %3
  store i32 0, ptr %4, align 4
  br label %45

17:                                               ; preds = %3
  call void @llvm.lifetime.start.p0(i64 4, ptr %8) #8
  store i32 0, ptr %8, align 4, !tbaa !11
  br label %18

18:                                               ; preds = %40, %17
  %19 = load ptr, ptr %5, align 8, !tbaa !4
  %20 = getelementptr inbounds nuw %struct.H264Context, ptr %19, i32 0, i32 79
  %21 = load i32, ptr %8, align 4, !tbaa !11
  %22 = sext i32 %21 to i64
  %23 = getelementptr inbounds [18 x ptr], ptr %20, i64 0, i64 %22
  %24 = load ptr, ptr %23, align 8, !tbaa !25
  %25 = icmp ne ptr %24, null
  br i1 %25, label %27, label %26

26:                                               ; preds = %18
  store i32 2, ptr %9, align 4
  br label %43

27:                                               ; preds = %18
  %28 = load ptr, ptr %6, align 8, !tbaa !25
  %29 = load ptr, ptr %5, align 8, !tbaa !4
  %30 = getelementptr inbounds nuw %struct.H264Context, ptr %29, i32 0, i32 79
  %31 = load i32, ptr %8, align 4, !tbaa !11
  %32 = sext i32 %31 to i64
  %33 = getelementptr inbounds [18 x ptr], ptr %30, i64 0, i64 %32
  %34 = load ptr, ptr %33, align 8, !tbaa !25
  %35 = icmp eq ptr %28, %34
  br i1 %35, label %36, label %39

36:                                               ; preds = %27
  %37 = load ptr, ptr %6, align 8, !tbaa !25
  %38 = getelementptr inbounds nuw %struct.H264Picture, ptr %37, i32 0, i32 21
  store i32 4, ptr %38, align 4, !tbaa !82
  store i32 2, ptr %9, align 4
  br label %43

39:                                               ; preds = %27
  br label %40

40:                                               ; preds = %39
  %41 = load i32, ptr %8, align 4, !tbaa !11
  %42 = add nsw i32 %41, 1
  store i32 %42, ptr %8, align 4, !tbaa !11
  br label %18, !llvm.loop !161

43:                                               ; preds = %36, %26
  call void @llvm.lifetime.end.p0(i64 4, ptr %8) #8
  br label %44

44:                                               ; preds = %43
  store i32 1, ptr %4, align 4
  br label %45

45:                                               ; preds = %44, %16
  %46 = load i32, ptr %4, align 4
  ret i32 %46
}

; Function Attrs: nounwind uwtable
define internal ptr @find_short(ptr noundef %0, i32 noundef %1, ptr noundef %2) #0 {
  %4 = alloca ptr, align 8
  %5 = alloca ptr, align 8
  %6 = alloca i32, align 4
  %7 = alloca ptr, align 8
  %8 = alloca i32, align 4
  %9 = alloca i32, align 4
  %10 = alloca ptr, align 8
  store ptr %0, ptr %5, align 8, !tbaa !4
  store i32 %1, ptr %6, align 4, !tbaa !11
  store ptr %2, ptr %7, align 8, !tbaa !134
  call void @llvm.lifetime.start.p0(i64 4, ptr %8) #8
  store i32 0, ptr %8, align 4, !tbaa !11
  br label %11

11:                                               ; preds = %55, %3
  %12 = load i32, ptr %8, align 4, !tbaa !11
  %13 = load ptr, ptr %5, align 8, !tbaa !4
  %14 = getelementptr inbounds nuw %struct.H264Context, ptr %13, i32 0, i32 89
  %15 = load i32, ptr %14, align 4, !tbaa !80
  %16 = icmp slt i32 %12, %15
  br i1 %16, label %18, label %17

17:                                               ; preds = %11
  store i32 2, ptr %9, align 4
  br label %58

18:                                               ; preds = %11
  call void @llvm.lifetime.start.p0(i64 8, ptr %10) #8
  %19 = load ptr, ptr %5, align 8, !tbaa !4
  %20 = getelementptr inbounds nuw %struct.H264Context, ptr %19, i32 0, i32 77
  %21 = load i32, ptr %8, align 4, !tbaa !11
  %22 = sext i32 %21 to i64
  %23 = getelementptr inbounds [32 x ptr], ptr %20, i64 0, i64 %22
  %24 = load ptr, ptr %23, align 8, !tbaa !25
  store ptr %24, ptr %10, align 8, !tbaa !25
  %25 = load ptr, ptr %5, align 8, !tbaa !4
  %26 = getelementptr inbounds nuw %struct.H264Context, ptr %25, i32 0, i32 1
  %27 = load ptr, ptr %26, align 8, !tbaa !28
  %28 = getelementptr inbounds nuw %struct.AVCodecContext, ptr %27, i32 0, i32 103
  %29 = load i32, ptr %28, align 4, !tbaa !108
  %30 = and i32 %29, 2048
  %31 = icmp ne i32 %30, 0
  br i1 %31, label %32, label %41

32:                                               ; preds = %18
  %33 = load ptr, ptr %5, align 8, !tbaa !4
  %34 = getelementptr inbounds nuw %struct.H264Context, ptr %33, i32 0, i32 1
  %35 = load ptr, ptr %34, align 8, !tbaa !28
  %36 = load i32, ptr %8, align 4, !tbaa !11
  %37 = load ptr, ptr %10, align 8, !tbaa !25
  %38 = getelementptr inbounds nuw %struct.H264Picture, ptr %37, i32 0, i32 13
  %39 = load i32, ptr %38, align 4, !tbaa !81
  %40 = load ptr, ptr %10, align 8, !tbaa !25
  call void (ptr, i32, ptr, ...) @av_log(ptr noundef %35, i32 noundef 48, ptr noundef @.str.32, i32 noundef %36, i32 noundef %39, ptr noundef %40)
  br label %41

41:                                               ; preds = %32, %18
  %42 = load ptr, ptr %10, align 8, !tbaa !25
  %43 = getelementptr inbounds nuw %struct.H264Picture, ptr %42, i32 0, i32 13
  %44 = load i32, ptr %43, align 4, !tbaa !81
  %45 = load i32, ptr %6, align 4, !tbaa !11
  %46 = icmp eq i32 %44, %45
  br i1 %46, label %47, label %51

47:                                               ; preds = %41
  %48 = load i32, ptr %8, align 4, !tbaa !11
  %49 = load ptr, ptr %7, align 8, !tbaa !134
  store i32 %48, ptr %49, align 4, !tbaa !11
  %50 = load ptr, ptr %10, align 8, !tbaa !25
  store ptr %50, ptr %4, align 8
  store i32 1, ptr %9, align 4
  br label %52

51:                                               ; preds = %41
  store i32 0, ptr %9, align 4
  br label %52

52:                                               ; preds = %51, %47
  call void @llvm.lifetime.end.p0(i64 8, ptr %10) #8
  %53 = load i32, ptr %9, align 4
  switch i32 %53, label %58 [
    i32 0, label %54
  ]

54:                                               ; preds = %52
  br label %55

55:                                               ; preds = %54
  %56 = load i32, ptr %8, align 4, !tbaa !11
  %57 = add nsw i32 %56, 1
  store i32 %57, ptr %8, align 4, !tbaa !11
  br label %11, !llvm.loop !196

58:                                               ; preds = %52, %17
  call void @llvm.lifetime.end.p0(i64 4, ptr %8) #8
  %59 = load i32, ptr %9, align 4
  switch i32 %59, label %63 [
    i32 2, label %60
    i32 1, label %61
  ]

60:                                               ; preds = %58
  store ptr null, ptr %4, align 8
  br label %61

61:                                               ; preds = %60, %58
  %62 = load ptr, ptr %4, align 8
  ret ptr %62

63:                                               ; preds = %58
  unreachable
}

; Function Attrs: nounwind uwtable
define internal ptr @remove_short(ptr noundef %0, i32 noundef %1, i32 noundef %2) #0 {
  %4 = alloca ptr, align 8
  %5 = alloca i32, align 4
  %6 = alloca i32, align 4
  %7 = alloca ptr, align 8
  %8 = alloca i32, align 4
  store ptr %0, ptr %4, align 8, !tbaa !4
  store i32 %1, ptr %5, align 4, !tbaa !11
  store i32 %2, ptr %6, align 4, !tbaa !11
  call void @llvm.lifetime.start.p0(i64 8, ptr %7) #8
  call void @llvm.lifetime.start.p0(i64 4, ptr %8) #8
  %9 = load ptr, ptr %4, align 8, !tbaa !4
  %10 = getelementptr inbounds nuw %struct.H264Context, ptr %9, i32 0, i32 1
  %11 = load ptr, ptr %10, align 8, !tbaa !28
  %12 = getelementptr inbounds nuw %struct.AVCodecContext, ptr %11, i32 0, i32 103
  %13 = load i32, ptr %12, align 4, !tbaa !108
  %14 = and i32 %13, 2048
  %15 = icmp ne i32 %14, 0
  br i1 %15, label %16, label %24

16:                                               ; preds = %3
  %17 = load ptr, ptr %4, align 8, !tbaa !4
  %18 = getelementptr inbounds nuw %struct.H264Context, ptr %17, i32 0, i32 1
  %19 = load ptr, ptr %18, align 8, !tbaa !28
  %20 = load i32, ptr %5, align 4, !tbaa !11
  %21 = load ptr, ptr %4, align 8, !tbaa !4
  %22 = getelementptr inbounds nuw %struct.H264Context, ptr %21, i32 0, i32 89
  %23 = load i32, ptr %22, align 4, !tbaa !80
  call void (ptr, i32, ptr, ...) @av_log(ptr noundef %19, i32 noundef 48, ptr noundef @.str.33, i32 noundef %20, i32 noundef %23)
  br label %24

24:                                               ; preds = %16, %3
  %25 = load ptr, ptr %4, align 8, !tbaa !4
  %26 = load i32, ptr %5, align 4, !tbaa !11
  %27 = call ptr @find_short(ptr noundef %25, i32 noundef %26, ptr noundef %8)
  store ptr %27, ptr %7, align 8, !tbaa !25
  %28 = load ptr, ptr %7, align 8, !tbaa !25
  %29 = icmp ne ptr %28, null
  br i1 %29, label %30, label %40

30:                                               ; preds = %24
  %31 = load ptr, ptr %4, align 8, !tbaa !4
  %32 = load ptr, ptr %7, align 8, !tbaa !25
  %33 = load i32, ptr %6, align 4, !tbaa !11
  %34 = call i32 @unreference_pic(ptr noundef %31, ptr noundef %32, i32 noundef %33)
  %35 = icmp ne i32 %34, 0
  br i1 %35, label %36, label %39

36:                                               ; preds = %30
  %37 = load ptr, ptr %4, align 8, !tbaa !4
  %38 = load i32, ptr %8, align 4, !tbaa !11
  call void @remove_short_at_index(ptr noundef %37, i32 noundef %38)
  br label %39

39:                                               ; preds = %36, %30
  br label %40

40:                                               ; preds = %39, %24
  %41 = load ptr, ptr %7, align 8, !tbaa !25
  call void @llvm.lifetime.end.p0(i64 4, ptr %8) #8
  call void @llvm.lifetime.end.p0(i64 8, ptr %7) #8
  ret ptr %41
}