; Function Attrs: nounwind uwtable
define internal fastcc ptr @remove_short(ptr noundef captures(none) %0, i32 noundef %1, i32 noundef %2) unnamed_addr #0 {
  %4 = getelementptr inbounds nuw i8, ptr %0, i64 8
  %5 = load ptr, ptr %4, align 8, !tbaa !4
  %6 = getelementptr inbounds nuw i8, ptr %5, i64 524
  %7 = load i32, ptr %6, align 4, !tbaa !64
  %8 = and i32 %7, 2048
  %.not = icmp eq i32 %8, 0
  br i1 %.not, label %12, label %9

9:                                                ; preds = %3
  %10 = getelementptr inbounds nuw i8, ptr %0, i64 736524
  %11 = load i32, ptr %10, align 4, !tbaa !76
  tail call void (ptr, i32, ptr, ...) @av_log(ptr noundef nonnull %5, i32 noundef 48, ptr noundef nonnull @.str.33, i32 noundef %1, i32 noundef %11) #7
  br label %12

12:                                               ; preds = %9, %3
  %13 = getelementptr inbounds nuw i8, ptr %0, i64 736524
  %14 = load i32, ptr %13, align 4, !tbaa !76
  %.not2224.i = icmp sgt i32 %14, 0
  br i1 %.not2224.i, label %.lr.ph.i, label %unreference_pic.exit

.lr.ph.i:                                         ; preds = %12
  %15 = getelementptr inbounds nuw i8, ptr %0, i64 734968
  br label %16

16:                                               ; preds = %30, %.lr.ph.i
  %indvars.iv.i = phi i64 [ 0, %.lr.ph.i ], [ %indvars.iv.next.i, %30 ]
  %17 = getelementptr inbounds nuw [32 x ptr], ptr %15, i64 0, i64 %indvars.iv.i
  %18 = load ptr, ptr %17, align 8, !tbaa !77
  %19 = load ptr, ptr %4, align 8, !tbaa !4
  %20 = getelementptr inbounds nuw i8, ptr %19, i64 524
  %21 = load i32, ptr %20, align 4, !tbaa !64
  %22 = and i32 %21, 2048
  %.not.i = icmp eq i32 %22, 0
  br i1 %.not.i, label %27, label %23

23:                                               ; preds = %16
  %24 = getelementptr inbounds nuw i8, ptr %18, i64 148
  %25 = load i32, ptr %24, align 4, !tbaa !78
  %26 = trunc nuw nsw i64 %indvars.iv.i to i32
  tail call void (ptr, i32, ptr, ...) @av_log(ptr noundef nonnull %19, i32 noundef 48, ptr noundef nonnull @.str.32, i32 noundef %26, i32 noundef %25, ptr noundef %18) #7
  br label %27

27:                                               ; preds = %23, %16
  %28 = getelementptr inbounds nuw i8, ptr %18, i64 148
  %29 = load i32, ptr %28, align 4, !tbaa !78
  %.not20.i = icmp eq i32 %29, %1
  br i1 %.not20.i, label %33, label %30

30:                                               ; preds = %27
  %indvars.iv.next.i = add nuw nsw i64 %indvars.iv.i, 1
  %31 = load i32, ptr %13, align 4, !tbaa !76
  %32 = sext i32 %31 to i64
  %.not22.i = icmp slt i64 %indvars.iv.next.i, %32
  br i1 %.not22.i, label %16, label %unreference_pic.exit, !llvm.loop !165

33:                                               ; preds = %27
  %34 = trunc nuw nsw i64 %indvars.iv.i to i32
  %35 = getelementptr inbounds nuw i8, ptr %18, i64 700
  %36 = load i32, ptr %35, align 4, !tbaa !121
  %37 = and i32 %36, %2
  store i32 %37, ptr %35, align 4, !tbaa !121
  %.not.i13 = icmp eq i32 %37, 0
  br i1 %.not.i13, label %.preheader.i, label %unreference_pic.exit

.preheader.i:                                     ; preds = %33
  %38 = getelementptr inbounds nuw i8, ptr %0, i64 735480
  %39 = load ptr, ptr %38, align 8, !tbaa !77
  %.not1112.i = icmp eq ptr %39, null
  br i1 %.not1112.i, label %.loopexit, label %.lr.ph.i14

40:                                               ; preds = %.lr.ph.i14
  %indvars.iv.next.i16 = add nuw nsw i64 %indvars.iv.i15, 1
  %41 = getelementptr inbounds nuw [18 x ptr], ptr %38, i64 0, i64 %indvars.iv.next.i16
  %42 = load ptr, ptr %41, align 8, !tbaa !77
  %.not11.i = icmp eq ptr %42, null
  br i1 %.not11.i, label %.loopexit, label %.lr.ph.i14, !llvm.loop !149

.lr.ph.i14:                                       ; preds = %.preheader.i, %40
  %indvars.iv.i15 = phi i64 [ %indvars.iv.next.i16, %40 ], [ 0, %.preheader.i ]
  %43 = phi ptr [ %42, %40 ], [ %39, %.preheader.i ]
  %44 = icmp eq ptr %18, %43
  br i1 %44, label %45, label %40

45:                                               ; preds = %.lr.ph.i14
  store i32 4, ptr %35, align 4, !tbaa !121
  br label %.loopexit

.loopexit:                                        ; preds = %40, %45, %.preheader.i
  %sext = shl i64 %indvars.iv.i, 32
  %46 = ashr exact i64 %sext, 32
  %47 = getelementptr inbounds [32 x ptr], ptr %15, i64 0, i64 %46
  store ptr null, ptr %47, align 8, !tbaa !77
  %48 = load i32, ptr %13, align 4, !tbaa !76
  %49 = add nsw i32 %48, -1
  store i32 %49, ptr %13, align 4, !tbaa !76
  %.not.i17 = icmp eq i32 %49, 0
  br i1 %.not.i17, label %unreference_pic.exit, label %50

50:                                               ; preds = %.loopexit
  %sext24 = add i64 %sext, 4294967296
  %51 = ashr exact i64 %sext24, 32
  %52 = getelementptr inbounds [32 x ptr], ptr %15, i64 0, i64 %51
  %53 = sub nsw i32 %49, %34
  %54 = sext i32 %53 to i64
  %55 = shl nsw i64 %54, 3
  tail call void @llvm.memmove.p0.p0.i64(ptr nonnull align 8 %47, ptr nonnull align 8 %52, i64 %55, i1 false)
  br label %unreference_pic.exit

unreference_pic.exit:                             ; preds = %30, %12, %50, %.loopexit, %33
  %spec.select.i21 = phi ptr [ %18, %33 ], [ %18, %.loopexit ], [ %18, %50 ], [ null, %12 ], [ null, %30 ]
  ret ptr %spec.select.i21
}